target datalayout = "e-m:e-p270:32:32-p271:32:32-p272:64:64-i64:64-i128:128-f80:128-n8:16:32:64-S128"
target triple = "x86_64-pc-linux-gnu"

; Function Attrs: mustprogress nounwind uwtable
define noundef i32 @_ZN6icu_7718CollationFastLatin16lookupUTF8UnsafeEPKtiPKhRi(ptr noundef %0, i32 noundef %1, ptr noundef %2, ptr noundef nonnull align 4 dereferenceable(4) %3) #2 align 2 {
  %5 = alloca i32, align 4
  %6 = alloca ptr, align 8
  %7 = alloca i32, align 4
  %8 = alloca ptr, align 8
  %9 = alloca ptr, align 8
  %10 = alloca i8, align 1
  %11 = alloca i32, align 4
  store ptr %0, ptr %6, align 8, !tbaa !10
  store i32 %1, ptr %7, align 4, !tbaa !12
  store ptr %2, ptr %8, align 8, !tbaa !56
  store ptr %3, ptr %9, align 8, !tbaa !57
  %12 = load i32, ptr %7, align 4, !tbaa !12
  %13 = icmp sle i32 %12, 197
  br i1 %13, label %14, label %32

14:                                               ; preds = %4
  %15 = load ptr, ptr %6, align 8, !tbaa !10
  %16 = load i32, ptr %7, align 4, !tbaa !12
  %17 = sub nsw i32 %16, 194
  %18 = shl i32 %17, 6
  %19 = load ptr, ptr %8, align 8, !tbaa !56
  %20 = load ptr, ptr %9, align 8, !tbaa !57
  %21 = load i32, ptr %20, align 4, !tbaa !12
  %22 = add nsw i32 %21, 1
  store i32 %22, ptr %20, align 4, !tbaa !12
  %23 = sext i32 %21 to i64
  %24 = getelementptr inbounds i8, ptr %19, i64 %23
  %25 = load i8, ptr %24, align 1, !tbaa !32
  %26 = zext i8 %25 to i32
  %27 = add nsw i32 %18, %26
  %28 = sext i32 %27 to i64
  %29 = getelementptr inbounds i16, ptr %15, i64 %28
  %30 = load i16, ptr %29, align 2, !tbaa !30
  %31 = zext i16 %30 to i32
  store i32 %31, ptr %5, align 4
  br label %61

32:                                               ; preds = %4
  call void @llvm.lifetime.start.p0(i64 1, ptr %10) #6
  %33 = load ptr, ptr %8, align 8, !tbaa !56
  %34 = load ptr, ptr %9, align 8, !tbaa !57
  %35 = load i32, ptr %34, align 4, !tbaa !12
  %36 = add nsw i32 %35, 1
  %37 = sext i32 %36 to i64
  %38 = getelementptr inbounds i8, ptr %33, i64 %37
  %39 = load i8, ptr %38, align 1, !tbaa !32
  store i8 %39, ptr %10, align 1, !tbaa !32
  %40 = load ptr, ptr %9, align 8, !tbaa !57
  %41 = load i32, ptr %40, align 4, !tbaa !12
  %42 = add nsw i32 %41, 2
  store i32 %42, ptr %40, align 4, !tbaa !12
  %43 = load i32, ptr %7, align 4, !tbaa !12
  %44 = icmp eq i32 %43, 226
  br i1 %44, label %45, label %54

45:                                               ; preds = %32
  %46 = load ptr, ptr %6, align 8, !tbaa !10
  %47 = load i8, ptr %10, align 1, !tbaa !32
  %48 = zext i8 %47 to i32
  %49 = add nsw i32 256, %48
  %50 = sext i32 %49 to i64
  %51 = getelementptr inbounds i16, ptr %46, i64 %50
  %52 = load i16, ptr %51, align 2, !tbaa !30
  %53 = zext i16 %52 to i32
  store i32 %53, ptr %5, align 4
  store i32 1, ptr %11, align 4
  br label %60

54:                                               ; preds = %32
  %55 = load i8, ptr %10, align 1, !tbaa !32
  %56 = zext i8 %55 to i32
  %57 = icmp eq i32 %56, 190
  br i1 %57, label %58, label %59

58:                                               ; preds = %54
  store i32 3, ptr %5, align 4
  store i32 1, ptr %11, align 4
  br label %60

59:                                               ; preds = %54
  store i32 64680, ptr %5, align 4
  store i32 1, ptr %11, align 4
  br label %60

60:                                               ; preds = %59, %58, %45
  call void @llvm.lifetime.end.p0(i64 1, ptr %10) #6
  br label %61

61:                                               ; preds = %60, %14
  %62 = load i32, ptr %5, align 4
  ret i32 %62
}