; Function Attrs: mustprogress nofree norecurse nosync nounwind willreturn memory(argmem: readwrite) uwtable
define noundef range(i32 0, 65536) i32 @_ZN6icu_7718CollationFastLatin16lookupUTF8UnsafeEPKtiPKhRi(ptr noundef readonly captures(none) %0, i32 noundef %1, ptr noundef readonly captures(none) %2, ptr noundef nonnull align 4 captures(none) dereferenceable(4) %3) local_unnamed_addr #7 align 2 {
  %5 = icmp slt i32 %1, 198
  br i1 %5, label %6, label %20

6:                                                ; preds = %4
  %7 = shl i32 %1, 6
  %8 = add i32 %7, -12416
  %9 = load i32, ptr %3, align 4, !tbaa !32
  %10 = add nsw i32 %9, 1
  store i32 %10, ptr %3, align 4, !tbaa !32
  %11 = sext i32 %9 to i64
  %12 = getelementptr inbounds i8, ptr %2, i64 %11
  %13 = load i8, ptr %12, align 1, !tbaa !28
  %14 = zext i8 %13 to i32
  %15 = add nsw i32 %8, %14
  %16 = sext i32 %15 to i64
  %17 = getelementptr inbounds i16, ptr %0, i64 %16
  %18 = load i16, ptr %17, align 2, !tbaa !25
  %19 = zext i16 %18 to i32
  br label %36

20:                                               ; preds = %4
  %21 = load i32, ptr %3, align 4, !tbaa !32
  %22 = sext i32 %21 to i64
  %23 = getelementptr i8, ptr %2, i64 %22
  %24 = getelementptr i8, ptr %23, i64 1
  %25 = load i8, ptr %24, align 1, !tbaa !28
  %26 = add nsw i32 %21, 2
  store i32 %26, ptr %3, align 4, !tbaa !32
  %27 = icmp eq i32 %1, 226
  br i1 %27, label %28, label %34

28:                                               ; preds = %20
  %29 = zext i8 %25 to i64
  %30 = or disjoint i64 %29, 256
  %31 = getelementptr inbounds nuw i16, ptr %0, i64 %30
  %32 = load i16, ptr %31, align 2, !tbaa !25
  %33 = zext i16 %32 to i32
  br label %36

34:                                               ; preds = %20
  %35 = icmp eq i8 %25, -66
  %. = select i1 %35, i32 3, i32 64680
  br label %36

36:                                               ; preds = %28, %34, %6
  %.0 = phi i32 [ %19, %6 ], [ %33, %28 ], [ %., %34 ]
  ret i32 %.0
}